target datalayout = "e-m:e-p270:32:32-p271:32:32-p272:64:64-i64:64-i128:128-f80:128-n8:16:32:64-S128"
target triple = "x86_64-pc-linux-gnu"

@.str.23 = private unnamed_addr constant [43 x i8] c"json: cannot delete idx %d of owner array\0A\00", align 1
@.str.24 = private unnamed_addr constant [45 x i8] c"json: no owner object cannot hold ownership\0A\00", align 1
@.str.25 = private unnamed_addr constant [54 x i8] c"json: no owner object specified to cli_json_delowner\0A\00", align 1
@.str.26 = private unnamed_addr constant [52 x i8] c"json: null string specified as key to cli_delowner\0A\00", align 1
@.str.27 = private unnamed_addr constant [53 x i8] c"json: owner array does not have content with key %s\0A\00", align 1
@.str.28 = private unnamed_addr constant [51 x i8] c"json: owner array does not have content at idx %d\0A\00", align 1

; Function Attrs: nounwind uwtable
define ptr @cli_jsonobj(ptr noundef %0, ptr noundef %1) #0 {
  %3 = alloca ptr, align 8
  %4 = alloca ptr, align 8
  %5 = alloca ptr, align 8
  %6 = alloca i32, align 4
  %7 = alloca ptr, align 8
  store ptr %0, ptr %4, align 8
  store ptr %1, ptr %5, align 8
  %8 = load ptr, ptr %4, align 8
  %9 = icmp ne ptr %8, null
  br i1 %9, label %10, label %27

10:                                               ; preds = %2
  %11 = load ptr, ptr %5, align 8
  %12 = icmp ne ptr %11, null
  br i1 %12, label %13, label %27

13:                                               ; preds = %10
  %14 = load ptr, ptr %4, align 8
  %15 = load ptr, ptr %5, align 8
  %16 = call i32 @json_object_object_get_ex(ptr noundef %14, ptr noundef %15, ptr noundef %7)
  %17 = icmp ne i32 %16, 0
  br i1 %17, label %18, label %27

18:                                               ; preds = %13
  %19 = load ptr, ptr %7, align 8
  %20 = call i32 @json_object_is_type(ptr noundef %19, i32 noundef 4)
  %21 = icmp ne i32 %20, 0
  br i1 %21, label %22, label %24

22:                                               ; preds = %18
  %23 = load ptr, ptr %7, align 8
  br label %25

24:                                               ; preds = %18
  br label %25

25:                                               ; preds = %24, %22
  %26 = phi ptr [ %23, %22 ], [ null, %24 ]
  store ptr %26, ptr %3, align 8
  br label %65

27:                                               ; preds = %13, %10, %2
  %28 = call ptr @json_object_new_object()
  store ptr %28, ptr %7, align 8
  %29 = load ptr, ptr %7, align 8
  %30 = icmp ne ptr %29, null
  br i1 %30, label %32, label %31

31:                                               ; preds = %27
  store ptr null, ptr %3, align 8
  br label %65

32:                                               ; preds = %27
  %33 = load ptr, ptr %4, align 8
  %34 = icmp ne ptr %33, null
  br i1 %34, label %35, label %63

35:                                               ; preds = %32
  %36 = load ptr, ptr %4, align 8
  %37 = call i32 @json_object_get_type(ptr noundef %36)
  store i32 %37, ptr %6, align 4
  %38 = load ptr, ptr %5, align 8
  %39 = icmp ne ptr %38, null
  br i1 %39, label %40, label %54

40:                                               ; preds = %35
  %41 = load i32, ptr %6, align 4
  %42 = icmp eq i32 %41, 4
  br i1 %42, label %43, label %54

43:                                               ; preds = %40
  %44 = load ptr, ptr %4, align 8
  %45 = load ptr, ptr %5, align 8
  %46 = load ptr, ptr %7, align 8
  %47 = call i32 @json_object_object_add(ptr noundef %44, ptr noundef %45, ptr noundef %46)
  %48 = load ptr, ptr %4, align 8
  %49 = load ptr, ptr %5, align 8
  %50 = call i32 @json_object_object_get_ex(ptr noundef %48, ptr noundef %49, ptr noundef %7)
  %51 = icmp ne i32 %50, 0
  br i1 %51, label %53, label %52

52:                                               ; preds = %43
  store ptr null, ptr %3, align 8
  br label %65

53:                                               ; preds = %43
  br label %62

54:                                               ; preds = %40, %35
  %55 = load i32, ptr %6, align 4
  %56 = icmp eq i32 %55, 5
  br i1 %56, label %57, label %61

57:                                               ; preds = %54
  %58 = load ptr, ptr %4, align 8
  %59 = load ptr, ptr %7, align 8
  %60 = call i32 @json_object_array_add(ptr noundef %58, ptr noundef %59)
  br label %61

61:                                               ; preds = %57, %54
  br label %62

62:                                               ; preds = %61, %53
  br label %63

63:                                               ; preds = %62, %32
  %64 = load ptr, ptr %7, align 8
  store ptr %64, ptr %3, align 8
  br label %65

65:                                               ; preds = %63, %52, %31, %25
  %66 = load ptr, ptr %3, align 8
  ret ptr %66
}

; Function Attrs: nounwind uwtable
define i32 @cli_json_delowner(ptr noundef %0, ptr noundef %1, i32 noundef %2) #0 {
  %4 = alloca i32, align 4
  %5 = alloca ptr, align 8
  %6 = alloca ptr, align 8
  %7 = alloca i32, align 4
  %8 = alloca i32, align 4
  %9 = alloca ptr, align 8
  %10 = alloca ptr, align 8
  store ptr %0, ptr %5, align 8
  store ptr %1, ptr %6, align 8
  store i32 %2, ptr %7, align 4
  %11 = load ptr, ptr %5, align 8
  %12 = icmp eq ptr null, %11
  br i1 %12, label %13, label %14

13:                                               ; preds = %3
  call void (ptr, ...) @cli_dbgmsg(ptr noundef @.str.25)
  store i32 2, ptr %4, align 4
  br label %62

14:                                               ; preds = %3
  %15 = load ptr, ptr %5, align 8
  %16 = call i32 @json_object_get_type(ptr noundef %15)
  store i32 %16, ptr %8, align 4
  %17 = load i32, ptr %8, align 4
  %18 = icmp eq i32 %17, 4
  br i1 %18, label %19, label %33

19:                                               ; preds = %14
  %20 = load ptr, ptr %6, align 8
  %21 = icmp eq ptr null, %20
  br i1 %21, label %22, label %23

22:                                               ; preds = %19
  call void (ptr, ...) @cli_dbgmsg(ptr noundef @.str.26)
  store i32 2, ptr %4, align 4
  br label %62

23:                                               ; preds = %19
  %24 = load ptr, ptr %5, align 8
  %25 = load ptr, ptr %6, align 8
  %26 = call i32 @json_object_object_get_ex(ptr noundef %24, ptr noundef %25, ptr noundef %9)
  %27 = icmp ne i32 %26, 0
  br i1 %27, label %30, label %28

28:                                               ; preds = %23
  %29 = load ptr, ptr %6, align 8
  call void (ptr, ...) @cli_dbgmsg(ptr noundef @.str.27, ptr noundef %29)
  store i32 3, ptr %4, align 4
  br label %62

30:                                               ; preds = %23
  %31 = load ptr, ptr %5, align 8
  %32 = load ptr, ptr %6, align 8
  call void @json_object_object_del(ptr noundef %31, ptr noundef %32)
  br label %61

33:                                               ; preds = %14
  %34 = load i32, ptr %8, align 4
  %35 = icmp eq i32 %34, 5
  br i1 %35, label %36, label %59

36:                                               ; preds = %33
  %37 = load ptr, ptr %5, align 8
  %38 = load i32, ptr %7, align 4
  %39 = sext i32 %38 to i64
  %40 = call ptr @json_object_array_get_idx(ptr noundef %37, i64 noundef %39)
  %41 = icmp eq ptr null, %40
  br i1 %41, label %42, label %44

42:                                               ; preds = %36
  %43 = load i32, ptr %7, align 4
  call void (ptr, ...) @cli_dbgmsg(ptr noundef @.str.28, i32 noundef %43)
  store i32 3, ptr %4, align 4
  br label %62

44:                                               ; preds = %36
  %45 = call ptr @cli_jsonobj(ptr noundef null, ptr noundef null)
  store ptr %45, ptr %10, align 8
  %46 = load ptr, ptr %10, align 8
  %47 = icmp eq ptr null, %46
  br i1 %47, label %48, label %49

48:                                               ; preds = %44
  store i32 20, ptr %4, align 4
  br label %62

49:                                               ; preds = %44
  %50 = load ptr, ptr %5, align 8
  %51 = load i32, ptr %7, align 4
  %52 = sext i32 %51 to i64
  %53 = load ptr, ptr %10, align 8
  %54 = call i32 @json_object_array_put_idx(ptr noundef %50, i64 noundef %52, ptr noundef %53)
  %55 = icmp ne i32 0, %54
  br i1 %55, label %56, label %58

56:                                               ; preds = %49
  %57 = load i32, ptr %7, align 4
  call void (ptr, ...) @cli_dbgmsg(ptr noundef @.str.23, i32 noundef %57)
  store i32 22, ptr %4, align 4
  br label %62

58:                                               ; preds = %49
  br label %60

59:                                               ; preds = %33
  call void (ptr, ...) @cli_dbgmsg(ptr noundef @.str.24)
  store i32 3, ptr %4, align 4
  br label %62

60:                                               ; preds = %58
  br label %61

61:                                               ; preds = %60, %30
  store i32 0, ptr %4, align 4
  br label %62

62:                                               ; preds = %61, %59, %56, %48, %42, %28, %22, %13
  %63 = load i32, ptr %4, align 4
  ret i32 %63
}