; Function Attrs: nounwind uwtable
define noundef i32 @cli_json_delowner(ptr noundef %0, ptr noundef %1, i32 noundef %2) local_unnamed_addr #0 {
  %4 = alloca ptr, align 8
  %5 = icmp eq ptr %0, null
  br i1 %5, label %6, label %7

6:                                                ; preds = %3
  tail call void (ptr, ...) @cli_dbgmsg(ptr noundef nonnull @.str.25) #2
  br label %cli_jsonobj.exit.thread

7:                                                ; preds = %3
  %8 = tail call i32 @json_object_get_type(ptr noundef nonnull %0) #2
  switch i32 %8, label %25 [
    i32 4, label %9
    i32 5, label %16
  ]

9:                                                ; preds = %7
  %10 = icmp eq ptr %1, null
  br i1 %10, label %11, label %12

11:                                               ; preds = %9
  tail call void (ptr, ...) @cli_dbgmsg(ptr noundef nonnull @.str.26) #2
  br label %cli_jsonobj.exit.thread

12:                                               ; preds = %9
  %13 = call i32 @json_object_object_get_ex(ptr noundef nonnull %0, ptr noundef nonnull %1, ptr noundef nonnull %4) #2
  %.not22 = icmp eq i32 %13, 0
  br i1 %.not22, label %14, label %15

14:                                               ; preds = %12
  call void (ptr, ...) @cli_dbgmsg(ptr noundef nonnull @.str.27, ptr noundef nonnull %1) #2
  br label %cli_jsonobj.exit.thread

15:                                               ; preds = %12
  call void @json_object_object_del(ptr noundef nonnull %0, ptr noundef nonnull %1) #2
  br label %cli_jsonobj.exit.thread

16:                                               ; preds = %7
  %17 = sext i32 %2 to i64
  %18 = tail call ptr @json_object_array_get_idx(ptr noundef nonnull %0, i64 noundef %17) #2
  %19 = icmp eq ptr %18, null
  br i1 %19, label %20, label %21

20:                                               ; preds = %16
  tail call void (ptr, ...) @cli_dbgmsg(ptr noundef nonnull @.str.28, i32 noundef %2) #2
  br label %cli_jsonobj.exit.thread

21:                                               ; preds = %16
  %22 = tail call ptr @json_object_new_object() #2
  %.not20.i = icmp eq ptr %22, null
  br i1 %.not20.i, label %cli_jsonobj.exit.thread, label %cli_jsonobj.exit

cli_jsonobj.exit:                                 ; preds = %21
  %23 = tail call i32 @json_object_array_put_idx(ptr noundef nonnull %0, i64 noundef %17, ptr noundef nonnull %22) #2
  %.not = icmp eq i32 %23, 0
  br i1 %.not, label %cli_jsonobj.exit.thread, label %24

24:                                               ; preds = %cli_jsonobj.exit
  tail call void (ptr, ...) @cli_dbgmsg(ptr noundef nonnull @.str.23, i32 noundef %2) #2
  br label %cli_jsonobj.exit.thread

25:                                               ; preds = %7
  tail call void (ptr, ...) @cli_dbgmsg(ptr noundef nonnull @.str.24) #2
  br label %cli_jsonobj.exit.thread

cli_jsonobj.exit.thread:                          ; preds = %21, %15, %cli_jsonobj.exit, %25, %24, %20, %14, %11, %6
  %.0 = phi i32 [ 2, %6 ], [ 2, %11 ], [ 3, %14 ], [ 3, %20 ], [ 22, %24 ], [ 3, %25 ], [ 0, %cli_jsonobj.exit ], [ 0, %15 ], [ 20, %21 ]
  ret i32 %.0
}